target datalayout = "e-m:e-p270:32:32-p271:32:32-p272:64:64-i64:64-i128:128-f80:128-n8:16:32:64-S128"
target triple = "x86_64-pc-linux-gnu"

%struct._sscop_info_t = type { i8, i32 }
%struct._value_string_ext = type { ptr, i32, i32, ptr, ptr }
%struct._packet_info = type { ptr, ptr, i32, i32, %struct.nstime_t, %struct.nstime_t, %struct.nstime_t, i32, ptr, ptr, ptr, ptr, %struct._address, %struct._address, %struct._address, %struct._address, %struct._address, %struct._address, i32, ptr, i32, %struct.anon, i32, i32, i32, i32, ptr, i32, ptr, ptr, i16, i16, i32, i32, i16, i32, i32, ptr, ptr, ptr, i8, i8, i16, i16, i16, i32, i16, i16, ptr, ptr, ptr, ptr, ptr, i32 }
%struct.nstime_t = type { i64, i32 }
%struct._address = type { i32, i32, ptr, ptr }
%struct.anon = type { i8, [3 x i8] }

@sscop_info = internal global %struct._sscop_info_t zeroinitializer, align 4
@.str = private unnamed_addr constant [6 x i8] c"SSCOP\00", align 1
@sscop_type_vals_ext = internal global %struct._value_string_ext { ptr @_try_val_to_str_ext_init, i32 0, i32 15, ptr @sscop_type_vals, ptr @.str.27 }, align 8
@.str.1 = private unnamed_addr constant [26 x i8] c"Unknown PDU type (0x%02x)\00", align 1
@proto_sscop = hidden global i32 0, align 4
@ett_sscop = internal global i32 0, align 4
@hf_sscop_type = internal global i32 0, align 4
@hf_sscop_sq = internal global i32 0, align 4
@hf_sscop_mr = internal global i32 0, align 4
@hf_sscop_source = internal global i32 0, align 4
@.str.2 = private unnamed_addr constant [5 x i8] c"User\00", align 1
@hf_sscop_s = internal global i32 0, align 4
@hf_sscop_ps = internal global i32 0, align 4
@hf_sscop_r = internal global i32 0, align 4
@hf_sscop_pad_length = internal global i32 0, align 4
@hf_sscop_stat_s = internal global i32 0, align 4
@ett_stat = internal global i32 0, align 4
@.str.43 = private unnamed_addr constant [8 x i8] c"SD List\00", align 1

; Function Attrs: nounwind uwtable
define internal void @dissect_stat_list(ptr noundef %0, ptr noundef %1, i32 noundef %2) #0 {
  %4 = alloca ptr, align 8
  %5 = alloca ptr, align 8
  %6 = alloca i32, align 4
  %7 = alloca i32, align 4
  %8 = alloca i32, align 4
  store ptr %0, ptr %4, align 8
  store ptr %1, ptr %5, align 8
  store i32 %2, ptr %6, align 4
  %9 = load ptr, ptr %5, align 8
  %10 = call i32 @tvb_reported_length(ptr noundef %9)
  %11 = udiv i32 %10, 4
  %12 = load i32, ptr %6, align 4
  %13 = sub i32 %11, %12
  store i32 %13, ptr %7, align 4
  %14 = icmp ne i32 %13, 0
  br i1 %14, label %15, label %38

15:                                               ; preds = %3
  %16 = load ptr, ptr %4, align 8
  %17 = load ptr, ptr %5, align 8
  %18 = load i32, ptr %7, align 4
  %19 = mul i32 %18, 4
  %20 = load i32, ptr @ett_stat, align 4
  %21 = call ptr @proto_tree_add_subtree(ptr noundef %16, ptr noundef %17, i32 noundef 0, i32 noundef %19, i32 noundef %20, ptr noundef null, ptr noundef @.str.43)
  store ptr %21, ptr %4, align 8
  store i32 0, ptr %8, align 4
  br label %22

22:                                               ; preds = %34, %15
  %23 = load i32, ptr %8, align 4
  %24 = load i32, ptr %7, align 4
  %25 = icmp slt i32 %23, %24
  br i1 %25, label %26, label %37

26:                                               ; preds = %22
  %27 = load ptr, ptr %4, align 8
  %28 = load i32, ptr @hf_sscop_stat_s, align 4
  %29 = load ptr, ptr %5, align 8
  %30 = load i32, ptr %8, align 4
  %31 = mul i32 %30, 4
  %32 = add i32 %31, 1
  %33 = call ptr @proto_tree_add_item(ptr noundef %27, i32 noundef %28, ptr noundef %29, i32 noundef %32, i32 noundef 3, i32 noundef 0)
  br label %34

34:                                               ; preds = %26
  %35 = load i32, ptr %8, align 4
  %36 = add i32 %35, 1
  store i32 %36, ptr %8, align 4
  br label %22, !llvm.loop !4

37:                                               ; preds = %22
  br label %38

38:                                               ; preds = %37, %3
  ret void
}

; Function Attrs: nounwind uwtable
define hidden void @dissect_sscop_and_payload(ptr noundef %0, ptr noundef %1, ptr noundef %2, ptr noundef %3) #0 {
  %5 = alloca ptr, align 8
  %6 = alloca ptr, align 8
  %7 = alloca ptr, align 8
  %8 = alloca ptr, align 8
  %9 = alloca i32, align 4
  %10 = alloca ptr, align 8
  %11 = alloca ptr, align 8
  %12 = alloca i8, align 1
  %13 = alloca i32, align 4
  %14 = alloca i32, align 4
  %15 = alloca ptr, align 8
  store ptr %0, ptr %5, align 8
  store ptr %1, ptr %6, align 8
  store ptr %2, ptr %7, align 8
  store ptr %3, ptr %8, align 8
  store ptr null, ptr %11, align 8
  %16 = load ptr, ptr %5, align 8
  %17 = call i32 @tvb_reported_length(ptr noundef %16)
  store i32 %17, ptr %9, align 4
  %18 = load ptr, ptr %5, align 8
  %19 = load i32, ptr %9, align 4
  %20 = sub i32 %19, 4
  %21 = call zeroext i8 @tvb_get_guint8(ptr noundef %18, i32 noundef %20)
  store i8 %21, ptr %12, align 1
  %22 = load i8, ptr %12, align 1
  %23 = zext i8 %22 to i32
  %24 = and i32 %23, 15
  %25 = trunc i32 %24 to i8
  store i8 %25, ptr @sscop_info, align 4
  %26 = load ptr, ptr %6, align 8
  %27 = getelementptr inbounds %struct._packet_info, ptr %26, i32 0, i32 1
  %28 = load ptr, ptr %27, align 8
  call void @col_set_str(ptr noundef %28, i32 noundef 34, ptr noundef @.str)
  %29 = load ptr, ptr %6, align 8
  %30 = getelementptr inbounds %struct._packet_info, ptr %29, i32 0, i32 1
  %31 = load ptr, ptr %30, align 8
  %32 = load i8, ptr @sscop_info, align 4
  %33 = zext i8 %32 to i32
  %34 = call ptr @val_to_str_ext(i32 noundef %33, ptr noundef @sscop_type_vals_ext, ptr noundef @.str.1)
  call void @col_add_str(ptr noundef %31, i32 noundef 25, ptr noundef %34)
  %35 = load i8, ptr @sscop_info, align 4
  %36 = zext i8 %35 to i32
  switch i32 %36, label %54 [
    i32 8, label %37
    i32 1, label %42
    i32 2, label %42
    i32 7, label %42
    i32 3, label %42
    i32 5, label %42
    i32 13, label %48
  ]

37:                                               ; preds = %4
  %38 = load i8, ptr %12, align 1
  %39 = zext i8 %38 to i32
  %40 = ashr i32 %39, 6
  %41 = and i32 %40, 3
  store i32 %41, ptr %14, align 4
  store i32 4, ptr %13, align 4
  br label %57

42:                                               ; preds = %4, %4, %4, %4, %4
  %43 = load i8, ptr %12, align 1
  %44 = zext i8 %43 to i32
  %45 = ashr i32 %44, 6
  %46 = and i32 %45, 3
  store i32 %46, ptr %14, align 4
  store i32 8, ptr %13, align 4
  %47 = getelementptr inbounds %struct._sscop_info_t, ptr @sscop_info, i32 0, i32 1
  store i32 8, ptr %47, align 4
  br label %57

48:                                               ; preds = %4
  %49 = load i8, ptr %12, align 1
  %50 = zext i8 %49 to i32
  %51 = ashr i32 %50, 6
  %52 = and i32 %51, 3
  store i32 %52, ptr %14, align 4
  store i32 4, ptr %13, align 4
  %53 = getelementptr inbounds %struct._sscop_info_t, ptr @sscop_info, i32 0, i32 1
  store i32 4, ptr %53, align 4
  br label %57

54:                                               ; preds = %4
  store i32 0, ptr %14, align 4
  %55 = load i32, ptr %9, align 4
  store i32 %55, ptr %13, align 4
  %56 = getelementptr inbounds %struct._sscop_info_t, ptr @sscop_info, i32 0, i32 1
  store i32 0, ptr %56, align 4
  br label %57

57:                                               ; preds = %54, %48, %42, %37
  %58 = load ptr, ptr %7, align 8
  %59 = icmp ne ptr %58, null
  br i1 %59, label %60, label %187

60:                                               ; preds = %57
  %61 = load ptr, ptr %7, align 8
  %62 = load i32, ptr @proto_sscop, align 4
  %63 = load ptr, ptr %5, align 8
  %64 = load i32, ptr %9, align 4
  %65 = load i32, ptr %13, align 4
  %66 = sub i32 %64, %65
  %67 = load i32, ptr %13, align 4
  %68 = call ptr (ptr, i32, ptr, i32, i32, ptr, ...) @proto_tree_add_protocol_format(ptr noundef %61, i32 noundef %62, ptr noundef %63, i32 noundef %66, i32 noundef %67, ptr noundef @.str)
  store ptr %68, ptr %10, align 8
  %69 = load ptr, ptr %10, align 8
  %70 = load i32, ptr @ett_sscop, align 4
  %71 = call ptr @proto_item_add_subtree(ptr noundef %69, i32 noundef %70)
  store ptr %71, ptr %11, align 8
  %72 = load ptr, ptr %11, align 8
  %73 = load i32, ptr @hf_sscop_type, align 4
  %74 = load ptr, ptr %5, align 8
  %75 = load i32, ptr %9, align 4
  %76 = sub i32 %75, 4
  %77 = call ptr @proto_tree_add_item(ptr noundef %72, i32 noundef %73, ptr noundef %74, i32 noundef %76, i32 noundef 1, i32 noundef 0)
  %78 = load i8, ptr @sscop_info, align 4
  %79 = zext i8 %78 to i32
  switch i32 %79, label %186 [
    i32 1, label %80
    i32 5, label %80
    i32 9, label %80
    i32 3, label %94
    i32 2, label %106
    i32 6, label %106
    i32 15, label %114
    i32 8, label %122
    i32 10, label %130
    i32 11, label %145
    i32 12, label %169
  ]

80:                                               ; preds = %60, %60, %60
  %81 = load ptr, ptr %11, align 8
  %82 = load i32, ptr @hf_sscop_sq, align 4
  %83 = load ptr, ptr %5, align 8
  %84 = load i32, ptr %9, align 4
  %85 = sub i32 %84, 5
  %86 = call ptr @proto_tree_add_item(ptr noundef %81, i32 noundef %82, ptr noundef %83, i32 noundef %85, i32 noundef 1, i32 noundef 0)
  %87 = load ptr, ptr %11, align 8
  %88 = load i32, ptr @hf_sscop_mr, align 4
  %89 = load ptr, ptr %5, align 8
  %90 = load i32, ptr %9, align 4
  %91 = sub i32 %90, 4
  %92 = add i32 %91, 1
  %93 = call ptr @proto_tree_add_item(ptr noundef %87, i32 noundef %88, ptr noundef %89, i32 noundef %92, i32 noundef 3, i32 noundef 0)
  br label %186

94:                                               ; preds = %60
  %95 = load ptr, ptr %11, align 8
  %96 = load i32, ptr @hf_sscop_source, align 4
  %97 = load ptr, ptr %5, align 8
  %98 = load i32, ptr %9, align 4
  %99 = sub i32 %98, 4
  %100 = load i8, ptr %12, align 1
  %101 = zext i8 %100 to i32
  %102 = and i32 %101, 16
  %103 = icmp ne i32 %102, 0
  %104 = select i1 %103, ptr @.str, ptr @.str.2
  %105 = call ptr @proto_tree_add_string(ptr noundef %95, i32 noundef %96, ptr noundef %97, i32 noundef %99, i32 noundef 1, ptr noundef %104)
  br label %186

106:                                              ; preds = %60, %60
  %107 = load ptr, ptr %11, align 8
  %108 = load i32, ptr @hf_sscop_mr, align 4
  %109 = load ptr, ptr %5, align 8
  %110 = load i32, ptr %9, align 4
  %111 = sub i32 %110, 4
  %112 = add i32 %111, 1
  %113 = call ptr @proto_tree_add_item(ptr noundef %107, i32 noundef %108, ptr noundef %109, i32 noundef %112, i32 noundef 3, i32 noundef 0)
  br label %186

114:                                              ; preds = %60
  %115 = load ptr, ptr %11, align 8
  %116 = load i32, ptr @hf_sscop_mr, align 4
  %117 = load ptr, ptr %5, align 8
  %118 = load i32, ptr %9, align 4
  %119 = sub i32 %118, 4
  %120 = add i32 %119, 1
  %121 = call ptr @proto_tree_add_item(ptr noundef %115, i32 noundef %116, ptr noundef %117, i32 noundef %120, i32 noundef 3, i32 noundef 0)
  br label %186

122:                                              ; preds = %60
  %123 = load ptr, ptr %11, align 8
  %124 = load i32, ptr @hf_sscop_s, align 4
  %125 = load ptr, ptr %5, align 8
  %126 = load i32, ptr %9, align 4
  %127 = sub i32 %126, 4
  %128 = add i32 %127, 1
  %129 = call ptr @proto_tree_add_item(ptr noundef %123, i32 noundef %124, ptr noundef %125, i32 noundef %128, i32 noundef 3, i32 noundef 0)
  br label %186

130:                                              ; preds = %60
  %131 = load ptr, ptr %11, align 8
  %132 = load i32, ptr @hf_sscop_ps, align 4
  %133 = load ptr, ptr %5, align 8
  %134 = load i32, ptr %9, align 4
  %135 = sub i32 %134, 8
  %136 = add i32 %135, 1
  %137 = call ptr @proto_tree_add_item(ptr noundef %131, i32 noundef %132, ptr noundef %133, i32 noundef %136, i32 noundef 3, i32 noundef 0)
  %138 = load ptr, ptr %11, align 8
  %139 = load i32, ptr @hf_sscop_s, align 4
  %140 = load ptr, ptr %5, align 8
  %141 = load i32, ptr %9, align 4
  %142 = sub i32 %141, 4
  %143 = add i32 %142, 1
  %144 = call ptr @proto_tree_add_item(ptr noundef %138, i32 noundef %139, ptr noundef %140, i32 noundef %143, i32 noundef 3, i32 noundef 0)
  br label %186

145:                                              ; preds = %60
  %146 = load ptr, ptr %11, align 8
  %147 = load i32, ptr @hf_sscop_ps, align 4
  %148 = load ptr, ptr %5, align 8
  %149 = load i32, ptr %9, align 4
  %150 = sub i32 %149, 12
  %151 = add i32 %150, 1
  %152 = call ptr @proto_tree_add_item(ptr noundef %146, i32 noundef %147, ptr noundef %148, i32 noundef %151, i32 noundef 3, i32 noundef 0)
  %153 = load ptr, ptr %11, align 8
  %154 = load i32, ptr @hf_sscop_mr, align 4
  %155 = load ptr, ptr %5, align 8
  %156 = load i32, ptr %9, align 4
  %157 = sub i32 %156, 8
  %158 = add i32 %157, 1
  %159 = call ptr @proto_tree_add_item(ptr noundef %153, i32 noundef %154, ptr noundef %155, i32 noundef %158, i32 noundef 3, i32 noundef 0)
  %160 = load ptr, ptr %11, align 8
  %161 = load i32, ptr @hf_sscop_r, align 4
  %162 = load ptr, ptr %5, align 8
  %163 = load i32, ptr %9, align 4
  %164 = sub i32 %163, 4
  %165 = add i32 %164, 1
  %166 = call ptr @proto_tree_add_item(ptr noundef %160, i32 noundef %161, ptr noundef %162, i32 noundef %165, i32 noundef 3, i32 noundef 0)
  %167 = load ptr, ptr %11, align 8
  %168 = load ptr, ptr %5, align 8
  call void @dissect_stat_list(ptr noundef %167, ptr noundef %168, i32 noundef 3)
  br label %186

169:                                              ; preds = %60
  %170 = load ptr, ptr %11, align 8
  %171 = load i32, ptr @hf_sscop_mr, align 4
  %172 = load ptr, ptr %5, align 8
  %173 = load i32, ptr %9, align 4
  %174 = sub i32 %173, 8
  %175 = add i32 %174, 1
  %176 = call ptr @proto_tree_add_item(ptr noundef %170, i32 noundef %171, ptr noundef %172, i32 noundef %175, i32 noundef 3, i32 noundef 0)
  %177 = load ptr, ptr %11, align 8
  %178 = load i32, ptr @hf_sscop_r, align 4
  %179 = load ptr, ptr %5, align 8
  %180 = load i32, ptr %9, align 4
  %181 = sub i32 %180, 4
  %182 = add i32 %181, 1
  %183 = call ptr @proto_tree_add_item(ptr noundef %177, i32 noundef %178, ptr noundef %179, i32 noundef %182, i32 noundef 3, i32 noundef 0)
  %184 = load ptr, ptr %11, align 8
  %185 = load ptr, ptr %5, align 8
  call void @dissect_stat_list(ptr noundef %184, ptr noundef %185, i32 noundef 2)
  br label %186

186:                                              ; preds = %169, %145, %130, %122, %114, %106, %94, %80, %60
  br label %187

187:                                              ; preds = %186, %57
  %188 = load i8, ptr @sscop_info, align 4
  %189 = zext i8 %188 to i32
  switch i32 %189, label %224 [
    i32 8, label %190
    i32 13, label %190
    i32 1, label %190
    i32 2, label %190
    i32 7, label %190
    i32 3, label %190
    i32 5, label %190
  ]

190:                                              ; preds = %187, %187, %187, %187, %187, %187, %187
  %191 = load ptr, ptr %7, align 8
  %192 = icmp ne ptr %191, null
  br i1 %192, label %193, label %201

193:                                              ; preds = %190
  %194 = load ptr, ptr %11, align 8
  %195 = load i32, ptr @hf_sscop_pad_length, align 4
  %196 = load ptr, ptr %5, align 8
  %197 = load i32, ptr %9, align 4
  %198 = sub i32 %197, 4
  %199 = load i32, ptr %14, align 4
  %200 = call ptr @proto_tree_add_uint(ptr noundef %194, i32 noundef %195, ptr noundef %196, i32 noundef %198, i32 noundef 1, i32 noundef %199)
  br label %201

201:                                              ; preds = %193, %190
  %202 = load i32, ptr %13, align 4
  %203 = load i32, ptr %14, align 4
  %204 = add i32 %202, %203
  %205 = load i32, ptr %9, align 4
  %206 = sub i32 %205, %204
  store i32 %206, ptr %9, align 4
  %207 = load i32, ptr %9, align 4
  %208 = icmp ne i32 %207, 0
  br i1 %208, label %209, label %223

209:                                              ; preds = %201
  %210 = load ptr, ptr %5, align 8
  %211 = load i32, ptr %9, align 4
  %212 = call ptr @tvb_new_subset_length(ptr noundef %210, i32 noundef 0, i32 noundef %211)
  store ptr %212, ptr %15, align 8
  %213 = load i8, ptr @sscop_info, align 4
  %214 = zext i8 %213 to i32
  %215 = icmp eq i32 %214, 8
  br i1 %215, label %216, label %222

216:                                              ; preds = %209
  %217 = load ptr, ptr %8, align 8
  %218 = load ptr, ptr %15, align 8
  %219 = load ptr, ptr %6, align 8
  %220 = load ptr, ptr %7, align 8
  %221 = call i32 @call_dissector(ptr noundef %217, ptr noundef %218, ptr noundef %219, ptr noundef %220)
  br label %222

222:                                              ; preds = %216, %209
  br label %224

223:                                              ; preds = %201
  br label %224

224:                                              ; preds = %223, %222, %187
  ret void
}