; Function Attrs: nounwind uwtable
define hidden void @dissect_sscop_and_payload(ptr noundef %0, ptr noundef %1, ptr noundef %2, ptr noundef %3) local_unnamed_addr #0 {
  %5 = tail call i32 @tvb_reported_length(ptr noundef %0) #2
  %6 = add i32 %5, -4
  %7 = tail call zeroext i8 @tvb_get_guint8(ptr noundef %0, i32 noundef %6) #2
  %8 = zext i8 %7 to i32
  %9 = and i8 %7, 15
  store i8 %9, ptr @sscop_info.0, align 4
  %10 = getelementptr inbounds nuw i8, ptr %1, i64 8
  %11 = load ptr, ptr %10, align 8
  tail call void @col_set_str(ptr noundef %11, i32 noundef 34, ptr noundef nonnull @.str) #2
  %12 = load ptr, ptr %10, align 8
  %13 = load i8, ptr @sscop_info.0, align 4
  %14 = zext i8 %13 to i32
  %15 = tail call ptr @val_to_str_ext(i32 noundef %14, ptr noundef nonnull @sscop_type_vals_ext, ptr noundef nonnull @.str.1) #2
  tail call void @col_add_str(ptr noundef %12, i32 noundef 25, ptr noundef %15) #2
  %16 = load i8, ptr @sscop_info.0, align 4
  switch i8 %16, label %23 [
    i8 8, label %17
    i8 1, label %19
    i8 2, label %19
    i8 7, label %19
    i8 3, label %19
    i8 5, label %19
    i8 13, label %21
  ]

17:                                               ; preds = %4
  %18 = lshr i32 %8, 6
  br label %23

19:                                               ; preds = %4, %4, %4, %4, %4
  %20 = lshr i32 %8, 6
  br label %23

21:                                               ; preds = %4
  %22 = lshr i32 %8, 6
  br label %23

23:                                               ; preds = %4, %21, %19, %17
  %.078 = phi i32 [ 4, %21 ], [ 8, %19 ], [ 4, %17 ], [ %5, %4 ]
  %.0 = phi i32 [ %22, %21 ], [ %20, %19 ], [ %18, %17 ], [ 0, %4 ]
  %.not = icmp eq ptr %2, null
  br i1 %.not, label %dissect_stat_list.exitthread-pre-split, label %24

24:                                               ; preds = %23
  %25 = load i32, ptr @proto_sscop, align 4
  %26 = sub i32 %5, %.078
  %27 = tail call ptr (ptr, i32, ptr, i32, i32, ptr, ...) @proto_tree_add_protocol_format(ptr noundef nonnull %2, i32 noundef %25, ptr noundef %0, i32 noundef %26, i32 noundef %.078, ptr noundef nonnull @.str) #2
  %28 = load i32, ptr @ett_sscop, align 4
  %29 = tail call ptr @proto_item_add_subtree(ptr noundef %27, i32 noundef %28) #2
  %30 = load i32, ptr @hf_sscop_type, align 4
  %31 = tail call ptr @proto_tree_add_item(ptr noundef %29, i32 noundef %30, ptr noundef %0, i32 noundef %6, i32 noundef 1, i32 noundef 0) #2
  %32 = load i8, ptr @sscop_info.0, align 4
  switch i8 %32, label %dissect_stat_list.exit [
    i8 1, label %33
    i8 5, label %33
    i8 9, label %33
    i8 3, label %40
    i8 2, label %45
    i8 6, label %45
    i8 15, label %49
    i8 8, label %53
    i8 10, label %57
    i8 11, label %64
    i8 12, label %87
  ]

33:                                               ; preds = %24, %24, %24
  %34 = load i32, ptr @hf_sscop_sq, align 4
  %35 = add i32 %5, -5
  %36 = tail call ptr @proto_tree_add_item(ptr noundef %29, i32 noundef %34, ptr noundef %0, i32 noundef %35, i32 noundef 1, i32 noundef 0) #2
  %37 = load i32, ptr @hf_sscop_mr, align 4
  %38 = add i32 %5, -3
  %39 = tail call ptr @proto_tree_add_item(ptr noundef %29, i32 noundef %37, ptr noundef %0, i32 noundef %38, i32 noundef 3, i32 noundef 0) #2
  br label %dissect_stat_list.exitthread-pre-split

40:                                               ; preds = %24
  %41 = load i32, ptr @hf_sscop_source, align 4
  %42 = and i32 %8, 16
  %.not82 = icmp eq i32 %42, 0
  %43 = select i1 %.not82, ptr @.str.2, ptr @.str
  %44 = tail call ptr @proto_tree_add_string(ptr noundef %29, i32 noundef %41, ptr noundef %0, i32 noundef %6, i32 noundef 1, ptr noundef nonnull %43) #2
  br label %dissect_stat_list.exitthread-pre-split

45:                                               ; preds = %24, %24
  %46 = load i32, ptr @hf_sscop_mr, align 4
  %47 = add i32 %5, -3
  %48 = tail call ptr @proto_tree_add_item(ptr noundef %29, i32 noundef %46, ptr noundef %0, i32 noundef %47, i32 noundef 3, i32 noundef 0) #2
  br label %dissect_stat_list.exitthread-pre-split

49:                                               ; preds = %24
  %50 = load i32, ptr @hf_sscop_mr, align 4
  %51 = add i32 %5, -3
  %52 = tail call ptr @proto_tree_add_item(ptr noundef %29, i32 noundef %50, ptr noundef %0, i32 noundef %51, i32 noundef 3, i32 noundef 0) #2
  br label %dissect_stat_list.exitthread-pre-split

53:                                               ; preds = %24
  %54 = load i32, ptr @hf_sscop_s, align 4
  %55 = add i32 %5, -3
  %56 = tail call ptr @proto_tree_add_item(ptr noundef %29, i32 noundef %54, ptr noundef %0, i32 noundef %55, i32 noundef 3, i32 noundef 0) #2
  br label %dissect_stat_list.exitthread-pre-split

57:                                               ; preds = %24
  %58 = load i32, ptr @hf_sscop_ps, align 4
  %59 = add i32 %5, -7
  %60 = tail call ptr @proto_tree_add_item(ptr noundef %29, i32 noundef %58, ptr noundef %0, i32 noundef %59, i32 noundef 3, i32 noundef 0) #2
  %61 = load i32, ptr @hf_sscop_s, align 4
  %62 = add i32 %5, -3
  %63 = tail call ptr @proto_tree_add_item(ptr noundef %29, i32 noundef %61, ptr noundef %0, i32 noundef %62, i32 noundef 3, i32 noundef 0) #2
  br label %dissect_stat_list.exitthread-pre-split

64:                                               ; preds = %24
  %65 = load i32, ptr @hf_sscop_ps, align 4
  %66 = add i32 %5, -11
  %67 = tail call ptr @proto_tree_add_item(ptr noundef %29, i32 noundef %65, ptr noundef %0, i32 noundef %66, i32 noundef 3, i32 noundef 0) #2
  %68 = load i32, ptr @hf_sscop_mr, align 4
  %69 = add i32 %5, -7
  %70 = tail call ptr @proto_tree_add_item(ptr noundef %29, i32 noundef %68, ptr noundef %0, i32 noundef %69, i32 noundef 3, i32 noundef 0) #2
  %71 = load i32, ptr @hf_sscop_r, align 4
  %72 = add i32 %5, -3
  %73 = tail call ptr @proto_tree_add_item(ptr noundef %29, i32 noundef %71, ptr noundef %0, i32 noundef %72, i32 noundef 3, i32 noundef 0) #2
  %74 = tail call i32 @tvb_reported_length(ptr noundef %0) #2
  %75 = lshr i32 %74, 2
  %76 = add nsw i32 %75, -3
  %.not.i = icmp eq i32 %75, 3
  br i1 %.not.i, label %dissect_stat_list.exitthread-pre-split, label %77

77:                                               ; preds = %64
  %78 = shl i32 %76, 2
  %79 = load i32, ptr @ett_stat, align 4
  %80 = tail call ptr @proto_tree_add_subtree(ptr noundef %29, ptr noundef %0, i32 noundef 0, i32 noundef %78, i32 noundef %79, ptr noundef null, ptr noundef nonnull @.str.43) #2
  %81 = icmp ugt i32 %74, 15
  br i1 %81, label %.lr.ph.i, label %dissect_stat_list.exitthread-pre-split

.lr.ph.i:                                         ; preds = %77, %.lr.ph.i
  %.011.i = phi i32 [ %86, %.lr.ph.i ], [ 0, %77 ]
  %82 = load i32, ptr @hf_sscop_stat_s, align 4
  %83 = shl i32 %.011.i, 2
  %84 = or disjoint i32 %83, 1
  %85 = tail call ptr @proto_tree_add_item(ptr noundef %80, i32 noundef %82, ptr noundef %0, i32 noundef %84, i32 noundef 3, i32 noundef 0) #2
  %86 = add nuw nsw i32 %.011.i, 1
  %exitcond.not.i = icmp eq i32 %86, %76
  br i1 %exitcond.not.i, label %dissect_stat_list.exitthread-pre-split, label %.lr.ph.i, !llvm.loop !4

87:                                               ; preds = %24
  %88 = load i32, ptr @hf_sscop_mr, align 4
  %89 = add i32 %5, -7
  %90 = tail call ptr @proto_tree_add_item(ptr noundef %29, i32 noundef %88, ptr noundef %0, i32 noundef %89, i32 noundef 3, i32 noundef 0) #2
  %91 = load i32, ptr @hf_sscop_r, align 4
  %92 = add i32 %5, -3
  %93 = tail call ptr @proto_tree_add_item(ptr noundef %29, i32 noundef %91, ptr noundef %0, i32 noundef %92, i32 noundef 3, i32 noundef 0) #2
  %94 = tail call i32 @tvb_reported_length(ptr noundef %0) #2
  %95 = lshr i32 %94, 2
  %96 = add nsw i32 %95, -2
  %.not.i84 = icmp eq i32 %95, 2
  br i1 %.not.i84, label %dissect_stat_list.exitthread-pre-split, label %97

97:                                               ; preds = %87
  %98 = shl i32 %96, 2
  %99 = load i32, ptr @ett_stat, align 4
  %100 = tail call ptr @proto_tree_add_subtree(ptr noundef %29, ptr noundef %0, i32 noundef 0, i32 noundef %98, i32 noundef %99, ptr noundef null, ptr noundef nonnull @.str.43) #2
  %101 = icmp ugt i32 %94, 11
  br i1 %101, label %.lr.ph.i85, label %dissect_stat_list.exitthread-pre-split

.lr.ph.i85:                                       ; preds = %97, %.lr.ph.i85
  %.011.i86 = phi i32 [ %106, %.lr.ph.i85 ], [ 0, %97 ]
  %102 = load i32, ptr @hf_sscop_stat_s, align 4
  %103 = shl i32 %.011.i86, 2
  %104 = or disjoint i32 %103, 1
  %105 = tail call ptr @proto_tree_add_item(ptr noundef %100, i32 noundef %102, ptr noundef %0, i32 noundef %104, i32 noundef 3, i32 noundef 0) #2
  %106 = add nuw nsw i32 %.011.i86, 1
  %exitcond.not.i87 = icmp eq i32 %106, %96
  br i1 %exitcond.not.i87, label %dissect_stat_list.exitthread-pre-split, label %.lr.ph.i85, !llvm.loop !4

dissect_stat_list.exitthread-pre-split:           ; preds = %.lr.ph.i85, %.lr.ph.i, %23, %57, %53, %49, %45, %40, %33, %64, %77, %87, %97
  %.079.ph = phi ptr [ %29, %97 ], [ %29, %87 ], [ %29, %77 ], [ %29, %64 ], [ null, %23 ], [ %29, %33 ], [ %29, %40 ], [ %29, %45 ], [ %29, %49 ], [ %29, %53 ], [ %29, %57 ], [ %29, %.lr.ph.i ], [ %29, %.lr.ph.i85 ]
  %.pr = load i8, ptr @sscop_info.0, align 4
  br label %dissect_stat_list.exit

dissect_stat_list.exit:                           ; preds = %dissect_stat_list.exitthread-pre-split, %24
  %107 = phi i8 [ %.pr, %dissect_stat_list.exitthread-pre-split ], [ %32, %24 ]
  %.079 = phi ptr [ %.079.ph, %dissect_stat_list.exitthread-pre-split ], [ %29, %24 ]
  switch i8 %107, label %121 [
    i8 8, label %108
    i8 13, label %108
    i8 1, label %108
    i8 2, label %108
    i8 7, label %108
    i8 3, label %108
    i8 5, label %108
  ]

108:                                              ; preds = %dissect_stat_list.exit, %dissect_stat_list.exit, %dissect_stat_list.exit, %dissect_stat_list.exit, %dissect_stat_list.exit, %dissect_stat_list.exit, %dissect_stat_list.exit
  br i1 %.not, label %112, label %109

109:                                              ; preds = %108
  %110 = load i32, ptr @hf_sscop_pad_length, align 4
  %111 = tail call ptr @proto_tree_add_uint(ptr noundef %.079, i32 noundef %110, ptr noundef %0, i32 noundef %6, i32 noundef 1, i32 noundef %.0) #2
  br label %112

112:                                              ; preds = %109, %108
  %113 = add i32 %.0, %.078
  %.not83 = icmp eq i32 %5, %113
  br i1 %.not83, label %121, label %114

114:                                              ; preds = %112
  %115 = sub i32 %5, %113
  %116 = tail call ptr @tvb_new_subset_length(ptr noundef %0, i32 noundef 0, i32 noundef %115) #2
  %117 = load i8, ptr @sscop_info.0, align 4
  %118 = icmp eq i8 %117, 8
  br i1 %118, label %119, label %121

119:                                              ; preds = %114
  %120 = tail call i32 @call_dissector(ptr noundef %3, ptr noundef %116, ptr noundef %1, ptr noundef %2) #2
  br label %121

121:                                              ; preds = %112, %114, %119, %dissect_stat_list.exit
  ret void
}